c__builtin__
set
p0
((lp1
Vall
p2
aVjust
p3
aVdon't
p4
aVbeing
p5
aVover
p6
aVboth
p7
aVthrough
p8
aVyourselves
p9
aVits
p10
aVbefore
p11
aVo
p12
aVdon
p13
aVhadn
p14
aVherself
p15
aVll
p16
aVhad
p17
aVshould
p18
aVto
p19
aVonly
p20
aVwon
p21
aVunder
p22
aVours
p23
aVhas
p24
aVshould've
p25
aVhaven't
p26
aVdo
p27
aVthem
p28
aVhis
p29
aVvery
p30
aVyou've
p31
aVthey
p32
aVnot
p33
aVduring
p34
aVnow
p35
aVhim
p36
aVnor
p37
aVwasn't
p38
aVd
p39
aVdid
p40
aVdidn
p41
aVthis
p42
aVshe
p43
aVeach
p44
aVfurther
p45
aVwon't
p46
aVwhere
p47
aVmustn't
p48
aVisn't
p49
aVfew
p50
aVbecause
p51
aVyou'd
p52
aVdoing
p53
aVsome
p54
aVhasn
p55
aVhasn't
p56
aVare
p57
aVour
p58
aVourselves
p59
aVout
p60
aVwhat
p61
aVfor
p62
aVneedn't
p63
aVbelow
p64
aVre
p65
aVdoes
p66
aVshouldn't
p67
aVabove
p68
aVbetween
p69
aVmustn
p70
aVt
p71
aVbe
p72
aVwe
p73
aVwho
p74
aVmightn't
p75
aVdoesn't
p76
aVwere
p77
aVhere
p78
aVshouldn
p79
aVhers
p80
aVaren't
p81
aVby
p82
aVon
p83
aVabout
p84
aVcouldn
p85
aVof
p86
aVwouldn't
p87
aVagainst
p88
aVs
p89
aVisn
p90
aVor
p91
aVown
p92
aVinto
p93
aVyourself
p94
aVdown
p95
aVhadn't
p96
aVmightn
p97
aVcouldn't
p98
aVwasn
p99
aVyour
p100
aVyou're
p101
aVfrom
p102
aVher
p103
aVtheir
p104
aVaren
p105
aVit's
p106
aVthere
p107
aVbeen
p108
aVwhom
p109
aVtoo
p110
aVwouldn
p111
aVthemselves
p112
aVweren
p113
aVwas
p114
aVuntil
p115
aVmore
p116
aVhimself
p117
aVthat
p118
aVdidn't
p119
aVbut
p120
aVthat'll
p121
aVwith
p122
aVthan
p123
aVthose
p124
aVhe
p125
aVme
p126
aVmyself
p127
aVma
p128
aVweren't
p129
aVthese
p130
aVup
p131
aVwill
p132
aVwhile
p133
aVain
p134
aVcan
p135
aVtheirs
p136
aVmy
p137
aVand
p138
aVve
p139
aVthen
p140
aVis
p141
aVam
p142
aVit
p143
aVdoesn
p144
aVan
p145
aVas
p146
aVitself
p147
aVat
p148
aVhave
p149
aVin
p150
aVany
p151
aVif
p152
aVagain
p153
aVno
p154
aVwhen
p155
aVsame
p156
aVhow
p157
aVother
p158
aVwhich
p159
aVyou
p160
aVshan't
p161
aVshan
p162
aVneedn
p163
aVhaven
p164
aVafter
p165
aVmost
p166
aVsuch
p167
aVwhy
p168
aVa
p169
aVoff
p170
aVi
p171
aVm
p172
aVyours
p173
aVyou'll
p174
aVso
p175
aVy
p176
aVshe's
p177
aVthe
p178
aVhaving
p179
aVonce
p180
atp181
Rp182
.